(lp0
((Vdom.ipc.plugins.asyncInit.enabled
p1
c__builtin__
bool
p2
tp3
I10
tp4
a((Vgeneral.smoothScroll
p5
g2
tp6
I520
tp7
a((Vdom.max_script_run_time
p8
c__builtin__
int
p9
tp10
I173
tp11
a((Vbrowser.newtabpage.enhanced
p12
g2
tp13
I7863
tp14
a((Vbrowser.tabs.animate
p15
g2
tp16
I57
tp17
a((Vapp.update.service.enabled
p18
g2
tp19
I456
tp20
a((Vsecurity.mixed_content.block_active_content
p21
g2
tp22
I90
tp23
a((Vextensions.blocklist.enabled
p24
g2
tp25
I120
tp26
a((Vbrowser.polaris.enabled
p27
g2
tp28
I14
tp29
a((Vbrowser.zoom.full
p30
g2
tp31
I13
tp32
a((Vapp.update.silent
p33
g2
tp34
I55
tp35
a((Vnetwork.proxy.http
p36
c__builtin__
unicode
p37
tp38
I1190
tp39
a((Vdevtools.chrome.enabled
p40
g2
tp41
I121
tp42
a((Vlayers.d3d11.disable-warp
p43
g2
tp44
I2
tp45
a((Vbrowser.urlbar.unifiedcomplete
p46
g2
tp47
I7
tp48
a((Vdom.ipc.plugins.enabled
p49
g2
tp50
I17
tp51
a((Vbrowser.cache.disk.enable
p52
g2
tp53
I59
tp54
a((Vnetwork.proxy.autoconfig_url
p55
g37
tp56
I278
tp57
a((Vgfx.direct2d.disabled
p58
g2
tp59
I100
tp60
a((Vbrowser.startup.homepage
p61
g37
tp62
I4067
tp63
a((Vapp.update.interval
p64
g9
tp65
I90
tp66
a((Vextensions.update.url
p67
g37
tp68
I10
tp69
a((Vlayout.css.devPixelsPerPx
p70
g37
tp71
I41
tp72
a((Vapp.feedback.baseURL
p73
g37
tp74
I13
tp75
a((Vlayers.acceleration.force-enabled
p76
g2
tp77
I30
tp78
a((Vbrowser.cache.disk.capacity
p79
g9
tp80
I6710
tp81
a((Vprivacy.trackingprotection.enabled
p82
g2
tp83
I403
tp84
a((Vbrowser.newtabpage.enabled
p85
g2
tp86
I1298
tp87
a((Vexperiments.manifest.uri
p88
g37
tp89
I8
tp90
a((Vapp.support.baseURL
p91
g37
tp92
I31
tp93
a((Vbrowser.startup.page
p94
g9
tp95
I1028
tp96
a((Vbrowser.urlbar.userMadeSearchSuggestionsChoice
p97
g2
tp98
I2198
tp99
a((Vlayers.async-video-oop.enabled
p100
g2
tp101
I1
tp102
a((Vbrowser.cache.memory.enable
p103
g2
tp104
I67
tp105
a((Vlayers.acceleration.disabled
p106
g2
tp107
I84
tp108
a((Vapp.update.auto
p109
g2
tp110
I2053
tp111
a((Vprivacy.donottrackheader.enabled
p112
g2
tp113
I1371
tp114
a((Vservices.sync.serverURL
p115
g37
tp116
I3
tp117
a((Vextensions.enabledScopes
p118
g9
tp119
I7
tp120
a((Vapp.update.enabled
p121
g2
tp122
I681
tp123
a((Vsecurity.mixed_content.block_display_content
p124
g2
tp125
I21
tp126
a((Vdevtools.debugger.remote-enabled
p127
g2
tp128
I100
tp129
a((Vextensions.blocklist.url
p130
g37
tp131
I97
tp132
a((Vbrowser.urlbar.suggest.searches
p133
g2
tp134
I1243
tp135
a((Vbrowser.search.suggest.enabled
p136
g2
tp137
I680
tp138
a((Vpdfjs.disabled
p139
g2
tp140
I26
tp141
a((Vgfx.direct2d.force-enabled
p142
g2
tp143
I21
tp144
a((Vdom.ipc.plugins.asyncInit.enabled
p145
g2
tp146
I37
tp147
a((Vgeneral.smoothScroll
p148
g2
tp149
I120
tp150
a((Vbrowser.newtabpage.enhanced
p151
g2
tp152
I14407
tp153
a((Vaccessibility.browsewithcaret
p154
g2
tp155
I517
tp156
a((Vextensions.blocklist.enabled
p157
g2
tp158
I56
tp159
a((Vapp.update.service.enabled
p160
g2
tp161
I433
tp162
a((Ve10s.rollout.disabledByLongSpinners
p163
g2
tp164
I108
tp165
a((Vlayers.prefer-d3d9
p166
g2
tp167
I6
tp168
a((Vlayers.offmainthreadcomposition.enabled
p169
g2
tp170
I4
tp171
a((Vbrowser.polaris.enabled
p172
g2
tp173
I10
tp174
a((Vbrowser.zoom.full
p175
g2
tp176
I13
tp177
a((Vnetwork.proxy.http
p178
g37
tp179
I367
tp180
a((Vaccessibility.force_disabled
p181
g9
tp182
I18
tp183
a((Vdevtools.chrome.enabled
p184
g2
tp185
I120
tp186
a((Vplaces.history.enabled
p187
g2
tp188
I283
tp189
a((Vbrowser.urlbar.unifiedcomplete
p190
g2
tp191
I6
tp192
a((Vapp.update.url
p193
g37
tp194
I18
tp195
a((Vbrowser.newtab.url
p196
g37
tp197
I914
tp198
a((Vextensions.update.background.url
p199
g37
tp200
I23
tp201
a((Vextensions.autoDisableScopes
p202
g9
tp203
I632
tp204
a((Vnetwork.proxy.autoconfig_url
p205
g37
tp206
I107
tp207
a((Vbrowser.cache.disk.enable
p208
g2
tp209
I68
tp210
a((Vgfx.direct2d.disabled
p211
g2
tp212
I149
tp213
a((Vdevtools.debugger.enabled
p214
g2
tp215
I3
tp216
a((Vlayout.css.devPixelsPerPx
p217
g37
tp218
I21
tp219
a((Vextensions.update.url
p220
g37
tp221
I40
tp222
a((Vbrowser.formfill.enable
p223
g2
tp224
I368
tp225
a((Vbrowser.cache.disk.capacity
p226
g9
tp227
I7010
tp228
a((Vapp.support.baseURL
p229
g37
tp230
I18
tp231
a((Vgfx.direct2d.force-enabled
p232
g37
tp233
I1
tp234
a((Vlayers.prefer-opengl
p235
g2
tp236
I5
tp237
a((Vlayers.acceleration.disabled
p238
g2
tp239
I102
tp240
a((Vbrowser.shell.checkDefaultBrowser
p241
g2
tp242
I2759
tp243
a((Vdom.ipc.processCount
p244
g9
tp245
I126
tp246
a((Vapp.update.auto
p247
g2
tp248
I822
tp249
a((Vbrowser.cache.offline.enable
p250
g2
tp251
I54
tp252
a((Vprivacy.donottrackheader.enabled
p253
g2
tp254
I3611
tp255
a((Vextensions.enabledScopes
p256
g9
tp257
I9
tp258
a((Vdevtools.debugger.remote-enabled
p259
g2
tp260
I64
tp261
a((Vsecurity.mixed_content.block_display_content
p262
g2
tp263
I12
tp264
a((Vextensions.blocklist.url
p265
g37
tp266
I91
tp267
a((Vgfx.direct2d.force-enabled
p268
g2
tp269
I14
tp270
a((Vbrowser.urlbar.suggest.searches
p271
g2
tp272
I2478
tp273
a((Vpdfjs.disabled
p274
g2
tp275
I18
tp276
a((Vdom.ipc.plugins.asyncInit.enabled
p277
g2
tp278
I6
tp279
a((Vbrowser.tabs.animate
p280
g2
tp281
I28
tp282
a((Vextensions.blocklist.enabled
p283
g2
tp284
I77
tp285
a((Vnetwork.proxy.ssl
p286
g37
tp287
I309
tp288
a((Vbrowser.polaris.enabled
p289
g2
tp290
I10
tp291
a((Vlayers.offmainthreadcomposition.enabled
p292
g2
tp293
I1
tp294
a((Vxpinstall.signatures.required
p295
g2
tp296
I1413
tp297
a((Vbrowser.zoom.full
p298
g2
tp299
I14
tp300
a((Vaccessibility.force_disabled
p301
g9
tp302
I26
tp303
a((Vnetwork.proxy.http
p304
g37
tp305
I392
tp306
a((Vplaces.history.enabled
p307
g2
tp308
I144
tp309
a((Vlayers.async-pan-zoom.enabled
p310
g2
tp311
I1
tp312
a((Vapp.update.url
p313
g37
tp314
I47
tp315
a((Vbrowser.urlbar.unifiedcomplete
p316
g2
tp317
I9
tp318
a((Vbrowser.newtab.url
p319
g37
tp320
I1862
tp321
a((Vbrowser.cache.disk.enable
p322
g2
tp323
I133
tp324
a((Vlayers.async-video.enabled
p325
g2
tp326
I3
tp327
a((Vbrowser.startup.homepage
p328
g37
tp329
I3894
tp330
a((Vapp.update.interval
p331
g9
tp332
I15
tp333
a((Vlayout.css.devPixelsPerPx
p334
g37
tp335
I27
tp336
a((Vlayers.acceleration.force-enabled
p337
g2
tp338
I27
tp339
a((Vbrowser.newtabpage.enabled
p340
g2
tp341
I664
tp342
a((Vlayers.async-video-oop.enabled
p343
g2
tp344
I1
tp345
a((Vbrowser.cache.memory.enable
p346
g2
tp347
I75
tp348
a((Vlayers.acceleration.disabled
p349
g2
tp350
I246
tp351
a((Vbrowser.cache.offline.enable
p352
g2
tp353
I27
tp354
a((Vbrowser.shell.checkDefaultBrowser
p355
g2
tp356
I2477
tp357
a((Vapp.update.auto
p358
g2
tp359
I1091
tp360
a((Vservices.sync.serverURL
p361
g37
tp362
I3
tp363
a((Vextensions.enabledScopes
p364
g9
tp365
I2
tp366
a((Vapp.update.enabled
p367
g2
tp368
I778
tp369
a((Vextensions.update.enabled
p370
g2
tp371
I48
tp372
a((Vsecurity.mixed_content.block_display_content
p373
g2
tp374
I26
tp375
a((Vbrowser.search.suggest.enabled
p376
g2
tp377
I305
tp378
a((Vbrowser.urlbar.suggest.searches
p379
g2
tp380
I1386
tp381
a((Vdom.max_script_run_time
p382
g9
tp383
I333
tp384
a((Vbrowser.newtabpage.enhanced
p385
g2
tp386
I6738
tp387
a((Vaccessibility.browsewithcaret
p388
g2
tp389
I151
tp390
a((Vbrowser.tabs.animate
p391
g2
tp392
I46
tp393
a((Vsecurity.mixed_content.block_active_content
p394
g2
tp395
I29
tp396
a((Vextensions.blocklist.enabled
p397
g2
tp398
I54
tp399
a((Vnetwork.proxy.ssl
p400
g37
tp401
I1010
tp402
a((Vxpinstall.signatures.required
p403
g2
tp404
I386
tp405
a((Vbrowser.zoom.full
p406
g2
tp407
I18
tp408
a((Vaccessibility.force_disabled
p409
g9
tp410
I45
tp411
a((Vapp.update.silent
p412
g2
tp413
I68
tp414
a((Vdevtools.chrome.enabled
p415
g2
tp416
I120
tp417
a((Vplaces.history.enabled
p418
g2
tp419
I133
tp420
a((Vlayers.async-pan-zoom.enabled
p421
g2
tp422
I6
tp423
a((Vbrowser.urlbar.unifiedcomplete
p424
g2
tp425
I15
tp426
a((Vbrowser.newtab.url
p427
g37
tp428
I861
tp429
a((Vextensions.update.background.url
p430
g37
tp431
I9
tp432
a((Vextensions.autoDisableScopes
p433
g9
tp434
I397
tp435
a((Vdom.ipc.plugins.enabled
p436
g2
tp437
I26
tp438
a((Vnetwork.proxy.autoconfig_url
p439
g37
tp440
I258
tp441
a((Vbrowser.cache.disk.enable
p442
g2
tp443
I87
tp444
a((Vgfx.direct2d.disabled
p445
g2
tp446
I289
tp447
a((Vextensions.strictCompatibility
p448
g2
tp449
I6
tp450
a((Vbrowser.startup.homepage
p451
g37
tp452
I4312
tp453
a((Vextensions.update.url
p454
g37
tp455
I24
tp456
a((Vbrowser.formfill.enable
p457
g2
tp458
I1052
tp459
a((Vlayout.css.devPixelsPerPx
p460
g37
tp461
I19
tp462
a((Vdevtools.debugger.enabled
p463
g2
tp464
I12
tp465
a((Vlayers.acceleration.force-enabled
p466
g2
tp467
I58
tp468
a((Vapp.feedback.baseURL
p469
g37
tp470
I34
tp471
a((Vprivacy.trackingprotection.enabled
p472
g2
tp473
I794
tp474
a((Vbrowser.newtabpage.enabled
p475
g2
tp476
I1366
tp477
a((Vapp.support.baseURL
p478
g37
tp479
I29
tp480
a((Vbrowser.startup.page
p481
g9
tp482
I2912
tp483
a((Vbrowser.urlbar.userMadeSearchSuggestionsChoice
p484
g2
tp485
I4476
tp486
a((Vbrowser.shell.checkDefaultBrowser
p487
g2
tp488
I5867
tp489
a((Vlayers.acceleration.disabled
p490
g2
tp491
I134
tp492
a((Vbrowser.cache.offline.enable
p493
g2
tp494
I16
tp495
a((Vprivacy.donottrackheader.enabled
p496
g2
tp497
I1221
tp498
a((Vapp.update.enabled
p499
g2
tp500
I607
tp501
a((Vsecurity.mixed_content.block_display_content
p502
g2
tp503
I16
tp504
a((Vextensions.update.enabled
p505
g2
tp506
I45
tp507
a((Vbrowser.urlbar.suggest.searches
p508
g2
tp509
I1131
tp510
a((Vgfx.direct2d.force-enabled
p511
g2
tp512
I37
tp513
a((Vpdfjs.disabled
p514
g2
tp515
I19
tp516
a((Vbrowser.search.suggest.enabled
p517
g2
tp518
I671
tp519
a((Vdom.ipc.plugins.asyncInit.enabled
p520
g2
tp521
I8
tp522
a((Vbrowser.newtabpage.enhanced
p523
g2
tp524
I7445
tp525
a((Vdom.max_script_run_time
p526
g9
tp527
I315
tp528
a((Vaccessibility.browsewithcaret
p529
g2
tp530
I146
tp531
a((Vbrowser.tabs.animate
p532
g2
tp533
I94
tp534
a((Vsecurity.mixed_content.block_active_content
p535
g2
tp536
I78
tp537
a((Ve10s.rollout.disabledByLongSpinners
p538
g2
tp539
I3
tp540
a((Vapp.update.service.enabled
p541
g2
tp542
I275
tp543
a((Vlayers.prefer-d3d9
p544
g2
tp545
I3
tp546
a((Vnetwork.proxy.ssl
p547
g37
tp548
I299
tp549
a((Vxpinstall.signatures.required
p550
g2
tp551
I434
tp552
a((Vlayers.offmainthreadcomposition.enabled
p553
g2
tp554
I4
tp555
a((Vapp.update.silent
p556
g2
tp557
I15
tp558
a((Vdevtools.chrome.enabled
p559
g2
tp560
I80
tp561
a((Vplaces.history.enabled
p562
g2
tp563
I111
tp564
a((Vapp.update.url
p565
g37
tp566
I24
tp567
a((Vbrowser.urlbar.unifiedcomplete
p568
g2
tp569
I5
tp570
a((Vbrowser.newtab.url
p571
g37
tp572
I963
tp573
a((Vextensions.update.background.url
p574
g37
tp575
I38
tp576
a((Vextensions.autoDisableScopes
p577
g9
tp578
I665
tp579
a((Vdom.ipc.plugins.enabled
p580
g2
tp581
I51
tp582
a((Vlayers.async-video.enabled
p583
g2
tp584
I1
tp585
a((Vsecurity.sandbox.content.level
p586
g9
tp587
I1
tp588
a((Vbrowser.startup.homepage
p589
g37
tp590
I7519
tp591
a((Vgfx.direct2d.use1_1
p592
g2
tp593
I2
tp594
a((Vdom.ipc.plugins.asyncInit
p595
g2
tp596
I2
tp597
a((Vapp.update.interval
p598
g9
tp599
I25
tp600
a((Vdevtools.debugger.enabled
p601
g2
tp602
I2
tp603
a((Vbrowser.formfill.enable
p604
g2
tp605
I282
tp606
a((Vlayers.acceleration.force-enabled
p607
g2
tp608
I28
tp609
a((Vapp.feedback.baseURL
p610
g37
tp611
I41
tp612
a((Vbrowser.cache.disk.capacity
p613
g9
tp614
I22641
tp615
a((Vapp.support.baseURL
p616
g37
tp617
I10
tp618
a((Vprivacy.trackingprotection.enabled
p619
g2
tp620
I832
tp621
a((Vbrowser.startup.page
p622
g9
tp623
I1077
tp624
a((Vbrowser.urlbar.userMadeSearchSuggestionsChoice
p625
g2
tp626
I4462
tp627
a((Vdom.ipc.processCount
p628
g9
tp629
I94
tp630
a((Vapp.update.auto
p631
g2
tp632
I890
tp633
a((Vbrowser.cache.offline.enable
p634
g2
tp635
I14
tp636
a((Vbrowser.shell.checkDefaultBrowser
p637
g2
tp638
I2779
tp639
a((Vlayers.d3d11.force-warp
p640
g2
tp641
I3
tp642
a((Vservices.sync.serverURL
p643
g37
tp644
I3
tp645
a((Vextensions.enabledScopes
p646
g9
tp647
I4
tp648
a((Vapp.update.enabled
p649
g2
tp650
I1313
tp651
a((Vdevtools.debugger.remote-enabled
p652
g2
tp653
I180
tp654
a((Vextensions.update.enabled
p655
g2
tp656
I50
tp657
a((Vextensions.blocklist.url
p658
g37
tp659
I374
tp660
a((Vgfx.direct2d.force-enabled
p661
g2
tp662
I18
tp663
a.